; Function Attrs: mustprogress nofree norecurse nosync nounwind willreturn memory(argmem: read) uwtable
define hidden ptr @SDL_GetSurfacePalette_REAL(ptr noundef readonly captures(address_is_null) %0) local_unnamed_addr #0 {
  %.not.i = icmp eq ptr %0, null
  br i1 %.not.i, label %SDL_SurfaceValid.exit.thread, label %SDL_SurfaceValid.exit

SDL_SurfaceValid.exit:                            ; preds = %1
  %2 = getelementptr inbounds nuw i8, ptr %0, i64 40
  %3 = load ptr, ptr %2, align 8
  %4 = icmp eq ptr %3, @SDL_surface_magic
  br i1 %4, label %5, label %SDL_SurfaceValid.exit.thread

5:                                                ; preds = %SDL_SurfaceValid.exit
  %6 = getelementptr inbounds nuw i8, ptr %0, i64 72
  %7 = load ptr, ptr %6, align 8
  br label %SDL_SurfaceValid.exit.thread

SDL_SurfaceValid.exit.thread:                     ; preds = %1, %SDL_SurfaceValid.exit, %5
  %.0 = phi ptr [ %7, %5 ], [ null, %SDL_SurfaceValid.exit ], [ null, %1 ]
  ret ptr %.0
}